(dp0
S'M!06700773_HUMAN'
p1
(dp2
S'Homo sapiens'
p3
S'M!06700773_HUMAN'
p4
sS'Pan troglodytes'
p5
S'M!06632636_PANTR'
p6
sS'Pongo abelii'
p7
S'M!06670590_PONAB'
p8
sS'Macaca mulatta'
p9
S'M!06576466_MACMU'
p10
sS'Gorilla gorilla'
p11
S'M!06616093_9593'
p12
ssS'M!06687780_HUMAN'
p13
(dp14
S'Homo sapiens'
p15
S'M!06687780_HUMAN'
p16
sS'Pan troglodytes'
p17
S'M!06628341_PANTR'
p18
sS'Pongo abelii'
p19
S'M!06680951_PONAB'
p20
sS'Macaca mulatta'
p21
S'M!06584786_MACMU'
p22
sS'Gorilla gorilla'
p23
S'M!06612309_9593'
p24
ssS'M!06692996_HUMAN'
p25
(dp26
S'Homo sapiens'
p27
S'M!06691485_HUMAN'
p28
sS'Pan troglodytes'
p29
S'M!06641413_PANTR'
p30
sS'Pongo abelii'
p31
S'M!06670079_PONAB'
p32
sS'Macaca mulatta'
p33
S'M!06595482_MACMU'
p34
sS'Gorilla gorilla'
p35
S'M!06616361_9593'
p36
ssS'M!06684001_HUMAN'
p37
(dp38
S'Homo sapiens'
p39
S'M!06684001_HUMAN'
p40
sS'Pan troglodytes'
p41
S'M!06628161_PANTR'
p42
sS'Pongo abelii'
p43
S'M!06677551_PONAB'
p44
sS'Macaca mulatta'
p45
S'M!06590973_MACMU'
p46
sS'Gorilla gorilla'
p47
S'M!06608128_9593'
p48
ssS'M!06697509_HUMAN'
p49
(dp50
S'Homo sapiens'
p51
S'M!06697509_HUMAN'
p52
sS'Pan troglodytes'
p53
S'M!06627001_PANTR'
p54
sS'Pongo abelii'
p55
S'M!06667753_PONAB'
p56
sS'Macaca mulatta'
p57
S'M!06593026_MACMU'
p58
sS'Gorilla gorilla'
p59
S'M!06605438_9593'
p60
ssS'M!06701070_HUMAN'
p61
(dp62
S'Homo sapiens'
p63
S'M!06701070_HUMAN'
p64
sS'Pan troglodytes'
p65
S'M!06631648_PANTR'
p66
sS'Pongo abelii'
p67
S'M!06677695_PONAB'
p68
sS'Macaca mulatta'
p69
S'M!06575434_MACMU'
p70
sS'Gorilla gorilla'
p71
S'M!06611524_9593'
p72
ssS'M!06692389_HUMAN'
p73
(dp74
S'Homo sapiens'
p75
S'M!06692389_HUMAN'
p76
sS'Pan troglodytes'
p77
S'M!06628011_PANTR'
p78
sS'Pongo abelii'
p79
S'M!06679316_PONAB'
p80
sS'Macaca mulatta'
p81
S'M!06580249_MACMU'
p82
sS'Gorilla gorilla'
p83
S'M!06614303_9593'
p84
ssS'M!06682367_HUMAN'
p85
(dp86
S'Homo sapiens'
p87
S'M!06682367_HUMAN'
p88
sS'Pan troglodytes'
p89
S'M!06624530_PANTR'
p90
sS'Pongo abelii'
p91
S'M!06662935_PONAB'
p92
sS'Macaca mulatta'
p93
S'M!06593572_MACMU'
p94
sS'Gorilla gorilla'
p95
S'M!06621146_9593'
p96
ssS'M!06689846_HUMAN'
p97
(dp98
S'Homo sapiens'
p99
S'M!06689846_HUMAN'
p100
sS'Pan troglodytes'
p101
S'M!06626733_PANTR'
p102
sS'Pongo abelii'
p103
S'M!06672362_PONAB'
p104
sS'Macaca mulatta'
p105
S'M!06595753_MACMU'
p106
sS'Gorilla gorilla'
p107
S'M!06612383_9593'
p108
ssS'M!06685210_HUMAN'
p109
(dp110
S'Homo sapiens'
p111
S'M!06685210_HUMAN'
p112
sS'Pan troglodytes'
p113
S'M!06633533_PANTR'
p114
sS'Pongo abelii'
p115
S'M!06672472_PONAB'
p116
sS'Macaca mulatta'
p117
S'M!06578767_MACMU'
p118
sS'Gorilla gorilla'
p119
S'M!06611052_9593'
p120
ssS'M!06683461_HUMAN'
p121
(dp122
S'Homo sapiens'
p123
S'M!06683461_HUMAN'
p124
sS'Pan troglodytes'
p125
S'M!06628204_PANTR'
p126
sS'Pongo abelii'
p127
S'M!06663911_PONAB'
p128
sS'Macaca mulatta'
p129
S'M!06591021_MACMU'
p130
sS'Gorilla gorilla'
p131
S'M!06604551_9593'
p132
ssS'M!06689400_HUMAN'
p133
(dp134
S'Homo sapiens'
p135
S'M!06683242_HUMAN'
p136
sS'Pan troglodytes'
p137
S'M!06636588_PANTR'
p138
sS'Pongo abelii'
p139
S'M!06662048_PONAB'
p140
sS'Macaca mulatta'
p141
S'M!06589665_MACMU'
p142
sS'Gorilla gorilla'
p143
S'M!06604957_9593'
p144
ssS'M!06695220_HUMAN'
p145
(dp146
S'Homo sapiens'
p147
S'M!06695220_HUMAN'
p148
sS'Pan troglodytes'
p149
S'M!06635186_PANTR'
p150
sS'Pongo abelii'
p151
S'M!06676727_PONAB'
p152
sS'Macaca mulatta'
p153
S'M!06592320_MACMU'
p154
sS'Gorilla gorilla'
p155
S'M!06618805_9593'
p156
ssS'M!06695537_HUMAN'
p157
(dp158
S'Homo sapiens'
p159
S'M!06695537_HUMAN'
p160
sS'Pan troglodytes'
p161
S'M!06630374_PANTR'
p162
sS'Pongo abelii'
p163
S'M!06671147_PONAB'
p164
sS'Macaca mulatta'
p165
S'M!06579199_MACMU'
p166
sS'Gorilla gorilla'
p167
S'M!06612211_9593'
p168
ssS'M!06693455_HUMAN'
p169
(dp170
S'Homo sapiens'
p171
S'M!06693455_HUMAN'
p172
sS'Pan troglodytes'
p173
S'M!06630963_PANTR'
p174
sS'Pongo abelii'
p175
S'M!06672077_PONAB'
p176
sS'Macaca mulatta'
p177
S'M!06586336_MACMU'
p178
sS'Gorilla gorilla'
p179
S'M!06610441_9593'
p180
ssS'M!06696255_HUMAN'
p181
(dp182
S'Homo sapiens'
p183
S'M!06683993_HUMAN'
p184
sS'Pan troglodytes'
p185
S'M!06636941_PANTR'
p186
sS'Pongo abelii'
p187
S'M!06675941_PONAB'
p188
sS'Macaca mulatta'
p189
S'M!06586923_MACMU'
p190
sS'Gorilla gorilla'
p191
S'M!06607452_9593'
p192
ssS'M!06701213_HUMAN'
p193
(dp194
S'Homo sapiens'
p195
S'M!06701213_HUMAN'
p196
sS'Pan troglodytes'
p197
S'M!06638311_PANTR'
p198
sS'Pongo abelii'
p199
S'M!06671936_PONAB'
p200
sS'Macaca mulatta'
p201
S'M!06580220_MACMU'
p202
sS'Gorilla gorilla'
p203
S'M!06604308_9593'
p204
ssS'M!06686613_HUMAN'
p205
(dp206
S'Homo sapiens'
p207
S'M!06686613_HUMAN'
p208
sS'Pan troglodytes'
p209
S'M!06631081_PANTR'
p210
sS'Pongo abelii'
p211
S'M!06672923_PONAB'
p212
sS'Macaca mulatta'
p213
S'M!06596260_MACMU'
p214
sS'Gorilla gorilla'
p215
S'M!06616441_9593'
p216
ssS'M!06683037_HUMAN'
p217
(dp218
S'Homo sapiens'
p219
S'M!06683037_HUMAN'
p220
sS'Pan troglodytes'
p221
S'M!06635088_PANTR'
p222
sS'Pongo abelii'
p223
S'M!06671426_PONAB'
p224
sS'Macaca mulatta'
p225
S'M!06593869_MACMU'
p226
sS'Gorilla gorilla'
p227
S'M!06621882_9593'
p228
ssS'M!06698586_HUMAN'
p229
(dp230
S'Homo sapiens'
p231
S'M!06698586_HUMAN'
p232
sS'Pan troglodytes'
p233
S'M!06637676_PANTR'
p234
sS'Pongo abelii'
p235
S'M!06666030_PONAB'
p236
sS'Macaca mulatta'
p237
S'M!06595782_MACMU'
p238
sS'Gorilla gorilla'
p239
S'M!06615184_9593'
p240
ssS'M!06684546_HUMAN'
p241
(dp242
S'Homo sapiens'
p243
S'M!06684546_HUMAN'
p244
sS'Pan troglodytes'
p245
S'M!06634306_PANTR'
p246
sS'Pongo abelii'
p247
S'M!06678392_PONAB'
p248
sS'Macaca mulatta'
p249
S'M!06594406_MACMU'
p250
sS'Gorilla gorilla'
p251
S'M!06608641_9593'
p252
ssS'M!06692904_HUMAN'
p253
(dp254
S'Homo sapiens'
p255
S'M!06692904_HUMAN'
p256
sS'Pan troglodytes'
p257
S'M!06635645_PANTR'
p258
sS'Pongo abelii'
p259
S'M!06666290_PONAB'
p260
sS'Macaca mulatta'
p261
S'M!06592199_MACMU'
p262
sS'Gorilla gorilla'
p263
S'M!06618622_9593'
p264
ssS'M!06698572_HUMAN'
p265
(dp266
S'Homo sapiens'
p267
S'M!06692692_HUMAN'
p268
sS'Pan troglodytes'
p269
S'M!06633284_PANTR'
p270
sS'Pongo abelii'
p271
S'M!06669614_PONAB'
p272
sS'Macaca mulatta'
p273
S'M!06588985_MACMU'
p274
sS'Gorilla gorilla'
p275
S'M!06603799_9593'
p276
ssS'M!06692163_HUMAN'
p277
(dp278
S'Homo sapiens'
p279
S'M!06692163_HUMAN'
p280
sS'Pan troglodytes'
p281
S'M!06641077_PANTR'
p282
sS'Pongo abelii'
p283
S'M!06671991_PONAB'
p284
sS'Macaca mulatta'
p285
S'M!06586926_MACMU'
p286
sS'Gorilla gorilla'
p287
S'M!06606028_9593'
p288
ssS'M!06691763_HUMAN'
p289
(dp290
S'Homo sapiens'
p291
S'M!06691763_HUMAN'
p292
sS'Pan troglodytes'
p293
S'M!06635745_PANTR'
p294
sS'Pongo abelii'
p295
S'M!06681336_PONAB'
p296
sS'Macaca mulatta'
p297
S'M!06579568_MACMU'
p298
sS'Gorilla gorilla'
p299
S'M!06621210_9593'
p300
ssS'M!06692441_HUMAN'
p301
(dp302
S'Homo sapiens'
p303
S'M!06692441_HUMAN'
p304
sS'Pan troglodytes'
p305
S'M!06628607_PANTR'
p306
sS'Pongo abelii'
p307
S'M!06670635_PONAB'
p308
sS'Macaca mulatta'
p309
S'M!06591381_MACMU'
p310
sS'Gorilla gorilla'
p311
S'M!06613303_9593'
p312
ssS'M!06693670_HUMAN'
p313
(dp314
S'Homo sapiens'
p315
S'M!06693670_HUMAN'
p316
sS'Pan troglodytes'
p317
S'M!06624958_PANTR'
p318
sS'Pongo abelii'
p319
S'M!06676043_PONAB'
p320
sS'Macaca mulatta'
p321
S'M!06584252_MACMU'
p322
sS'Gorilla gorilla'
p323
S'M!06617679_9593'
p324
ssS'M!06687246_HUMAN'
p325
(dp326
S'Homo sapiens'
p327
S'M!06687246_HUMAN'
p328
sS'Pan troglodytes'
p329
S'M!06632394_PANTR'
p330
sS'Pongo abelii'
p331
S'M!06663510_PONAB'
p332
sS'Macaca mulatta'
p333
S'M!06577737_MACMU'
p334
sS'Gorilla gorilla'
p335
S'M!06608452_9593'
p336
ssS'M!06695557_HUMAN'
p337
(dp338
S'Homo sapiens'
p339
S'M!06695557_HUMAN'
p340
sS'Pan troglodytes'
p341
S'M!06636862_PANTR'
p342
sS'Pongo abelii'
p343
S'M!06673627_PONAB'
p344
sS'Macaca mulatta'
p345
S'M!06589124_MACMU'
p346
sS'Gorilla gorilla'
p347
S'M!06614704_9593'
p348
ssS'M!06681565_HUMAN'
p349
(dp350
S'Homo sapiens'
p351
S'M!06681565_HUMAN'
p352
sS'Pan troglodytes'
p353
S'M!06639660_PANTR'
p354
sS'Pongo abelii'
p355
S'M!06679795_PONAB'
p356
sS'Macaca mulatta'
p357
S'M!06593844_MACMU'
p358
sS'Gorilla gorilla'
p359
S'M!06610936_9593'
p360
ssS'M!06696068_HUMAN'
p361
(dp362
S'Homo sapiens'
p363
S'M!06696068_HUMAN'
p364
sS'Pan troglodytes'
p365
S'M!06635427_PANTR'
p366
sS'Pongo abelii'
p367
S'M!06675740_PONAB'
p368
sS'Macaca mulatta'
p369
S'M!06576616_MACMU'
p370
sS'Gorilla gorilla'
p371
S'M!06618189_9593'
p372
ssS'M!06700351_HUMAN'
p373
(dp374
S'Homo sapiens'
p375
S'M!06700351_HUMAN'
p376
sS'Pan troglodytes'
p377
S'M!06640651_PANTR'
p378
sS'Pongo abelii'
p379
S'M!06666878_PONAB'
p380
sS'Macaca mulatta'
p381
S'M!06589766_MACMU'
p382
sS'Gorilla gorilla'
p383
S'M!06621144_9593'
p384
ssS'M!06692601_HUMAN'
p385
(dp386
S'Homo sapiens'
p387
S'M!06692601_HUMAN'
p388
sS'Pan troglodytes'
p389
S'M!06630100_PANTR'
p390
sS'Pongo abelii'
p391
S'M!06662435_PONAB'
p392
sS'Macaca mulatta'
p393
S'M!06587860_MACMU'
p394
sS'Gorilla gorilla'
p395
S'M!06605654_9593'
p396
ssS'M!06681882_HUMAN'
p397
(dp398
S'Homo sapiens'
p399
S'M!06695932_HUMAN'
p400
sS'Pan troglodytes'
p401
S'M!06638036_PANTR'
p402
sS'Pongo abelii'
p403
S'M!06674790_PONAB'
p404
sS'Macaca mulatta'
p405
S'M!06584900_MACMU'
p406
sS'Gorilla gorilla'
p407
S'M!06609051_9593'
p408
ssS'M!06696250_HUMAN'
p409
(dp410
S'Homo sapiens'
p411
S'M!06696250_HUMAN'
p412
sS'Pan troglodytes'
p413
S'M!06634157_PANTR'
p414
sS'Pongo abelii'
p415
S'M!06665235_PONAB'
p416
sS'Macaca mulatta'
p417
S'M!06581603_MACMU'
p418
sS'Gorilla gorilla'
p419
S'M!06609728_9593'
p420
ssS'M!06695204_HUMAN'
p421
(dp422
S'Homo sapiens'
p423
S'M!06695204_HUMAN'
p424
sS'Pan troglodytes'
p425
S'M!06628489_PANTR'
p426
sS'Pongo abelii'
p427
S'M!06664690_PONAB'
p428
sS'Macaca mulatta'
p429
S'M!06576392_MACMU'
p430
sS'Gorilla gorilla'
p431
S'M!06606892_9593'
p432
ssS'M!06688523_HUMAN'
p433
(dp434
S'Homo sapiens'
p435
S'M!06688523_HUMAN'
p436
sS'Pan troglodytes'
p437
S'M!06629239_PANTR'
p438
sS'Pongo abelii'
p439
S'M!06679321_PONAB'
p440
sS'Macaca mulatta'
p441
S'M!06576285_MACMU'
p442
sS'Gorilla gorilla'
p443
S'M!06617027_9593'
p444
ssS'M!06685879_HUMAN'
p445
(dp446
S'Homo sapiens'
p447
S'M!06685879_HUMAN'
p448
sS'Pan troglodytes'
p449
S'M!06626918_PANTR'
p450
sS'Pongo abelii'
p451
S'M!06662254_PONAB'
p452
sS'Macaca mulatta'
p453
S'M!06594050_MACMU'
p454
sS'Gorilla gorilla'
p455
S'M!06621226_9593'
p456
ssS'M!06693094_HUMAN'
p457
(dp458
S'Homo sapiens'
p459
S'M!06693094_HUMAN'
p460
sS'Pan troglodytes'
p461
S'M!06625971_PANTR'
p462
sS'Pongo abelii'
p463
S'M!06675098_PONAB'
p464
sS'Macaca mulatta'
p465
S'M!06587355_MACMU'
p466
sS'Gorilla gorilla'
p467
S'M!06605697_9593'
p468
ssS'M!06699478_HUMAN'
p469
(dp470
S'Homo sapiens'
p471
S'M!06697753_HUMAN'
p472
sS'Pan troglodytes'
p473
S'M!06634830_PANTR'
p474
sS'Pongo abelii'
p475
S'M!06665167_PONAB'
p476
sS'Macaca mulatta'
p477
S'M!06584120_MACMU'
p478
sS'Gorilla gorilla'
p479
S'M!06607653_9593'
p480
ssS'M!06696449_HUMAN'
p481
(dp482
S'Homo sapiens'
p483
S'M!06696449_HUMAN'
p484
sS'Pan troglodytes'
p485
S'M!06638791_PANTR'
p486
sS'Pongo abelii'
p487
S'M!06666936_PONAB'
p488
sS'Macaca mulatta'
p489
S'M!06585007_MACMU'
p490
sS'Gorilla gorilla'
p491
S'M!06622778_9593'
p492
ssS'M!06685455_HUMAN'
p493
(dp494
S'Homo sapiens'
p495
S'M!06685455_HUMAN'
p496
sS'Pan troglodytes'
p497
S'M!06632316_PANTR'
p498
sS'Pongo abelii'
p499
S'M!06680168_PONAB'
p500
sS'Macaca mulatta'
p501
S'M!06589974_MACMU'
p502
sS'Gorilla gorilla'
p503
S'M!06608348_9593'
p504
ssS'M!06689358_HUMAN'
p505
(dp506
S'Homo sapiens'
p507
S'M!06689358_HUMAN'
p508
sS'Pan troglodytes'
p509
S'M!06639827_PANTR'
p510
sS'Pongo abelii'
p511
S'M!06676358_PONAB'
p512
sS'Macaca mulatta'
p513
S'M!06582491_MACMU'
p514
sS'Gorilla gorilla'
p515
S'M!06607214_9593'
p516
ssS'M!06691806_HUMAN'
p517
(dp518
S'Homo sapiens'
p519
S'M!06691806_HUMAN'
p520
sS'Pan troglodytes'
p521
S'M!06628623_PANTR'
p522
sS'Pongo abelii'
p523
S'M!06667323_PONAB'
p524
sS'Macaca mulatta'
p525
S'M!06585299_MACMU'
p526
sS'Gorilla gorilla'
p527
S'M!06603133_9593'
p528
ssS'M!06696279_HUMAN'
p529
(dp530
S'Homo sapiens'
p531
S'M!06696279_HUMAN'
p532
sS'Pan troglodytes'
p533
S'M!06626977_PANTR'
p534
sS'Pongo abelii'
p535
S'M!06674299_PONAB'
p536
sS'Macaca mulatta'
p537
S'M!06596206_MACMU'
p538
sS'Gorilla gorilla'
p539
S'M!06617752_9593'
p540
ssS'M!06702075_HUMAN'
p541
(dp542
S'Homo sapiens'
p543
S'M!06682050_HUMAN'
p544
sS'Pan troglodytes'
p545
S'M!06632118_PANTR'
p546
sS'Pongo abelii'
p547
S'M!06673628_PONAB'
p548
sS'Macaca mulatta'
p549
S'M!06582786_MACMU'
p550
sS'Gorilla gorilla'
p551
S'M!06605987_9593'
p552
ssS'M!06690446_HUMAN'
p553
(dp554
S'Homo sapiens'
p555
S'M!06690446_HUMAN'
p556
sS'Pan troglodytes'
p557
S'M!06628081_PANTR'
p558
sS'Pongo abelii'
p559
S'M!06676547_PONAB'
p560
sS'Macaca mulatta'
p561
S'M!06594384_MACMU'
p562
sS'Gorilla gorilla'
p563
S'M!06605958_9593'
p564
ssS'M!06695763_HUMAN'
p565
(dp566
S'Homo sapiens'
p567
S'M!06695763_HUMAN'
p568
sS'Pan troglodytes'
p569
S'M!06639041_PANTR'
p570
sS'Pongo abelii'
p571
S'M!06674600_PONAB'
p572
sS'Macaca mulatta'
p573
S'M!06577104_MACMU'
p574
sS'Gorilla gorilla'
p575
S'M!06618408_9593'
p576
ssS'M!06695227_HUMAN'
p577
(dp578
S'Homo sapiens'
p579
S'M!06695227_HUMAN'
p580
sS'Pan troglodytes'
p581
S'M!06635193_PANTR'
p582
sS'Pongo abelii'
p583
S'M!06666513_PONAB'
p584
sS'Macaca mulatta'
p585
S'M!06588046_MACMU'
p586
sS'Gorilla gorilla'
p587
S'M!06605212_9593'
p588
ssS'M!06701576_HUMAN'
p589
(dp590
S'Homo sapiens'
p591
S'M!06701576_HUMAN'
p592
sS'Pan troglodytes'
p593
S'M!06639602_PANTR'
p594
sS'Pongo abelii'
p595
S'M!06672965_PONAB'
p596
sS'Macaca mulatta'
p597
S'M!06588856_MACMU'
p598
sS'Gorilla gorilla'
p599
S'M!06615829_9593'
p600
ssS'M!06687258_HUMAN'
p601
(dp602
S'Homo sapiens'
p603
S'M!06687258_HUMAN'
p604
sS'Pan troglodytes'
p605
S'M!06630191_PANTR'
p606
sS'Pongo abelii'
p607
S'M!06668849_PONAB'
p608
sS'Macaca mulatta'
p609
S'M!06584316_MACMU'
p610
sS'Gorilla gorilla'
p611
S'M!06620244_9593'
p612
ssS'M!06691495_HUMAN'
p613
(dp614
S'Homo sapiens'
p615
S'M!06685343_HUMAN'
p616
sS'Pan troglodytes'
p617
S'M!06635521_PANTR'
p618
sS'Pongo abelii'
p619
S'M!06664015_PONAB'
p620
sS'Macaca mulatta'
p621
S'M!06582450_MACMU'
p622
sS'Gorilla gorilla'
p623
S'M!06614319_9593'
p624
ssS'M!06698387_HUMAN'
p625
(dp626
S'Homo sapiens'
p627
S'M!06698387_HUMAN'
p628
sS'Pan troglodytes'
p629
S'M!06640171_PANTR'
p630
sS'Pongo abelii'
p631
S'M!06678885_PONAB'
p632
sS'Macaca mulatta'
p633
S'M!06588610_MACMU'
p634
sS'Gorilla gorilla'
p635
S'M!06614951_9593'
p636
ssS'M!06696769_HUMAN'
p637
(dp638
S'Homo sapiens'
p639
S'M!06690263_HUMAN'
p640
sS'Pan troglodytes'
p641
S'M!06628701_PANTR'
p642
sS'Pongo abelii'
p643
S'M!06675254_PONAB'
p644
sS'Macaca mulatta'
p645
S'M!06595539_MACMU'
p646
sS'Gorilla gorilla'
p647
S'M!06606199_9593'
p648
ssS'M!06681920_HUMAN'
p649
(dp650
S'Homo sapiens'
p651
S'M!06681920_HUMAN'
p652
sS'Pan troglodytes'
p653
S'M!06633584_PANTR'
p654
sS'Pongo abelii'
p655
S'M!06667157_PONAB'
p656
sS'Macaca mulatta'
p657
S'M!06589050_MACMU'
p658
sS'Gorilla gorilla'
p659
S'M!06610752_9593'
p660
ssS'M!06695183_HUMAN'
p661
(dp662
S'Homo sapiens'
p663
S'M!06695183_HUMAN'
p664
sS'Pan troglodytes'
p665
S'M!06633232_PANTR'
p666
sS'Pongo abelii'
p667
S'M!06665921_PONAB'
p668
sS'Macaca mulatta'
p669
S'M!06584477_MACMU'
p670
sS'Gorilla gorilla'
p671
S'M!06612203_9593'
p672
ssS'M!06693184_HUMAN'
p673
(dp674
S'Homo sapiens'
p675
S'M!06693184_HUMAN'
p676
sS'Pan troglodytes'
p677
S'M!06624929_PANTR'
p678
sS'Pongo abelii'
p679
S'M!06674364_PONAB'
p680
sS'Macaca mulatta'
p681
S'M!06592677_MACMU'
p682
sS'Gorilla gorilla'
p683
S'M!06612818_9593'
p684
ssS'M!06699333_HUMAN'
p685
(dp686
S'Homo sapiens'
p687
S'M!06699333_HUMAN'
p688
sS'Pan troglodytes'
p689
S'M!06635721_PANTR'
p690
sS'Pongo abelii'
p691
S'M!06676042_PONAB'
p692
sS'Macaca mulatta'
p693
S'M!06592843_MACMU'
p694
sS'Gorilla gorilla'
p695
S'M!06611944_9593'
p696
ssS'M!06686540_HUMAN'
p697
(dp698
S'Homo sapiens'
p699
S'M!06686540_HUMAN'
p700
sS'Pan troglodytes'
p701
S'M!06641463_PANTR'
p702
sS'Pongo abelii'
p703
S'M!06676608_PONAB'
p704
sS'Macaca mulatta'
p705
S'M!06589824_MACMU'
p706
sS'Gorilla gorilla'
p707
S'M!06614955_9593'
p708
ssS'M!06691019_HUMAN'
p709
(dp710
S'Homo sapiens'
p711
S'M!06691019_HUMAN'
p712
sS'Pan troglodytes'
p713
S'M!06631416_PANTR'
p714
sS'Pongo abelii'
p715
S'M!06670060_PONAB'
p716
sS'Macaca mulatta'
p717
S'M!06588733_MACMU'
p718
sS'Gorilla gorilla'
p719
S'M!06615393_9593'
p720
ssS'M!06699580_HUMAN'
p721
(dp722
S'Homo sapiens'
p723
S'M!06699580_HUMAN'
p724
sS'Pan troglodytes'
p725
S'M!06625264_PANTR'
p726
sS'Pongo abelii'
p727
S'M!06665829_PONAB'
p728
sS'Macaca mulatta'
p729
S'M!06583414_MACMU'
p730
sS'Gorilla gorilla'
p731
S'M!06617505_9593'
p732
ssS'M!06697380_HUMAN'
p733
(dp734
S'Homo sapiens'
p735
S'M!06701078_HUMAN'
p736
sS'Pan troglodytes'
p737
S'M!06623747_PANTR'
p738
sS'Pongo abelii'
p739
S'M!06675824_PONAB'
p740
sS'Macaca mulatta'
p741
S'M!06581040_MACMU'
p742
sS'Gorilla gorilla'
p743
S'M!06606333_9593'
p744
ssS'M!06698336_HUMAN'
p745
(dp746
S'Homo sapiens'
p747
S'M!06698336_HUMAN'
p748
sS'Pan troglodytes'
p749
S'M!06627497_PANTR'
p750
sS'Pongo abelii'
p751
S'M!06676106_PONAB'
p752
sS'Macaca mulatta'
p753
S'M!06591770_MACMU'
p754
sS'Gorilla gorilla'
p755
S'M!06618206_9593'
p756
ssS'M!06700453_HUMAN'
p757
(dp758
S'Homo sapiens'
p759
S'M!06700453_HUMAN'
p760
sS'Pan troglodytes'
p761
S'M!06632321_PANTR'
p762
sS'Pongo abelii'
p763
S'M!06672064_PONAB'
p764
sS'Macaca mulatta'
p765
S'M!06587021_MACMU'
p766
sS'Gorilla gorilla'
p767
S'M!06612535_9593'
p768
ssS'M!06689339_HUMAN'
p769
(dp770
S'Homo sapiens'
p771
S'M!06689339_HUMAN'
p772
sS'Pan troglodytes'
p773
S'M!06628273_PANTR'
p774
sS'Pongo abelii'
p775
S'M!06662755_PONAB'
p776
sS'Macaca mulatta'
p777
S'M!06589986_MACMU'
p778
sS'Gorilla gorilla'
p779
S'M!06615078_9593'
p780
ssS'M!06682417_HUMAN'
p781
(dp782
S'Homo sapiens'
p783
S'M!06682417_HUMAN'
p784
sS'Pan troglodytes'
p785
S'M!06637313_PANTR'
p786
sS'Pongo abelii'
p787
S'M!06680058_PONAB'
p788
sS'Macaca mulatta'
p789
S'M!06585678_MACMU'
p790
sS'Gorilla gorilla'
p791
S'M!06622113_9593'
p792
ssS'M!06700436_HUMAN'
p793
(dp794
S'Homo sapiens'
p795
S'M!06700436_HUMAN'
p796
sS'Pan troglodytes'
p797
S'M!06638062_PANTR'
p798
sS'Pongo abelii'
p799
S'M!06670894_PONAB'
p800
sS'Macaca mulatta'
p801
S'M!06586407_MACMU'
p802
sS'Gorilla gorilla'
p803
S'M!06605893_9593'
p804
ssS'M!06682967_HUMAN'
p805
(dp806
S'Homo sapiens'
p807
S'M!06682967_HUMAN'
p808
sS'Pan troglodytes'
p809
S'M!06630793_PANTR'
p810
sS'Pongo abelii'
p811
S'M!06678332_PONAB'
p812
sS'Macaca mulatta'
p813
S'M!06579532_MACMU'
p814
sS'Gorilla gorilla'
p815
S'M!06619115_9593'
p816
ssS'M!06700391_HUMAN'
p817
(dp818
S'Homo sapiens'
p819
S'M!06700391_HUMAN'
p820
sS'Pan troglodytes'
p821
S'M!06640081_PANTR'
p822
sS'Pongo abelii'
p823
S'M!06675546_PONAB'
p824
sS'Macaca mulatta'
p825
S'M!06575481_MACMU'
p826
sS'Gorilla gorilla'
p827
S'M!06622846_9593'
p828
ssS'M!06695556_HUMAN'
p829
(dp830
S'Homo sapiens'
p831
S'M!06695556_HUMAN'
p832
sS'Pan troglodytes'
p833
S'M!06627043_PANTR'
p834
sS'Pongo abelii'
p835
S'M!06676294_PONAB'
p836
sS'Macaca mulatta'
p837
S'M!06576713_MACMU'
p838
sS'Gorilla gorilla'
p839
S'M!06610477_9593'
p840
ssS'M!06681649_HUMAN'
p841
(dp842
S'Homo sapiens'
p843
S'M!06681649_HUMAN'
p844
sS'Pan troglodytes'
p845
S'M!06640289_PANTR'
p846
sS'Pongo abelii'
p847
S'M!06669230_PONAB'
p848
sS'Macaca mulatta'
p849
S'M!06591199_MACMU'
p850
sS'Gorilla gorilla'
p851
S'M!06620195_9593'
p852
ssS'M!06690578_HUMAN'
p853
(dp854
S'Homo sapiens'
p855
S'M!06690578_HUMAN'
p856
sS'Pan troglodytes'
p857
S'M!06630802_PANTR'
p858
sS'Pongo abelii'
p859
S'M!06676747_PONAB'
p860
sS'Macaca mulatta'
p861
S'M!06582993_MACMU'
p862
sS'Gorilla gorilla'
p863
S'M!06620886_9593'
p864
ssS'M!06693415_HUMAN'
p865
(dp866
S'Homo sapiens'
p867
S'M!06693415_HUMAN'
p868
sS'Pan troglodytes'
p869
S'M!06634999_PANTR'
p870
sS'Pongo abelii'
p871
S'M!06675529_PONAB'
p872
sS'Macaca mulatta'
p873
S'M!06589299_MACMU'
p874
sS'Gorilla gorilla'
p875
S'M!06615198_9593'
p876
ssS'M!06700623_HUMAN'
p877
(dp878
S'Homo sapiens'
p879
S'M!06700623_HUMAN'
p880
sS'Pan troglodytes'
p881
S'M!06637211_PANTR'
p882
sS'Pongo abelii'
p883
S'M!06668829_PONAB'
p884
sS'Macaca mulatta'
p885
S'M!06590210_MACMU'
p886
sS'Gorilla gorilla'
p887
S'M!06622901_9593'
p888
ssS'M!06698597_HUMAN'
p889
(dp890
S'Homo sapiens'
p891
S'M!06698597_HUMAN'
p892
sS'Pan troglodytes'
p893
S'M!06641289_PANTR'
p894
sS'Pongo abelii'
p895
S'M!06680477_PONAB'
p896
sS'Macaca mulatta'
p897
S'M!06593802_MACMU'
p898
sS'Gorilla gorilla'
p899
S'M!06618182_9593'
p900
ssS'M!06700517_HUMAN'
p901
(dp902
S'Homo sapiens'
p903
S'M!06700517_HUMAN'
p904
sS'Pan troglodytes'
p905
S'M!06633835_PANTR'
p906
sS'Pongo abelii'
p907
S'M!06665130_PONAB'
p908
sS'Macaca mulatta'
p909
S'M!06587300_MACMU'
p910
sS'Gorilla gorilla'
p911
S'M!06614640_9593'
p912
ssS'M!06700763_HUMAN'
p913
(dp914
S'Homo sapiens'
p915
S'M!06700351_HUMAN'
p916
sS'Pan troglodytes'
p917
S'M!06640651_PANTR'
p918
sS'Pongo abelii'
p919
S'M!06666878_PONAB'
p920
sS'Macaca mulatta'
p921
S'M!06589766_MACMU'
p922
sS'Gorilla gorilla'
p923
S'M!06621144_9593'
p924
ssS'M!06687003_HUMAN'
p925
(dp926
S'Homo sapiens'
p927
S'M!06687003_HUMAN'
p928
sS'Pan troglodytes'
p929
S'M!06636465_PANTR'
p930
sS'Pongo abelii'
p931
S'M!06669411_PONAB'
p932
sS'Macaca mulatta'
p933
S'M!06588586_MACMU'
p934
sS'Gorilla gorilla'
p935
S'M!06619590_9593'
p936
ssS'M!06687888_HUMAN'
p937
(dp938
S'Homo sapiens'
p939
S'M!06687888_HUMAN'
p940
sS'Pan troglodytes'
p941
S'M!06635814_PANTR'
p942
sS'Pongo abelii'
p943
S'M!06669460_PONAB'
p944
sS'Macaca mulatta'
p945
S'M!06582820_MACMU'
p946
sS'Gorilla gorilla'
p947
S'M!06622621_9593'
p948
ssS'M!06699944_HUMAN'
p949
(dp950
S'Homo sapiens'
p951
S'M!06699944_HUMAN'
p952
sS'Pan troglodytes'
p953
S'M!06637110_PANTR'
p954
sS'Pongo abelii'
p955
S'M!06666601_PONAB'
p956
sS'Macaca mulatta'
p957
S'M!06593356_MACMU'
p958
sS'Gorilla gorilla'
p959
S'M!06610376_9593'
p960
ssS'M!06700734_HUMAN'
p961
(dp962
S'Homo sapiens'
p963
S'M!06700734_HUMAN'
p964
sS'Pan troglodytes'
p965
S'M!06640028_PANTR'
p966
sS'Pongo abelii'
p967
S'M!06671166_PONAB'
p968
sS'Macaca mulatta'
p969
S'M!06589717_MACMU'
p970
sS'Gorilla gorilla'
p971
S'M!06617677_9593'
p972
ssS'M!06687608_HUMAN'
p973
(dp974
S'Homo sapiens'
p975
S'M!06687608_HUMAN'
p976
sS'Pan troglodytes'
p977
S'M!06629414_PANTR'
p978
sS'Pongo abelii'
p979
S'M!06671979_PONAB'
p980
sS'Macaca mulatta'
p981
S'M!06582754_MACMU'
p982
sS'Gorilla gorilla'
p983
S'M!06620554_9593'
p984
ssS'M!06687344_HUMAN'
p985
(dp986
S'Homo sapiens'
p987
S'M!06687344_HUMAN'
p988
sS'Pan troglodytes'
p989
S'M!06634150_PANTR'
p990
sS'Pongo abelii'
p991
S'M!06666727_PONAB'
p992
sS'Macaca mulatta'
p993
S'M!06594996_MACMU'
p994
sS'Gorilla gorilla'
p995
S'M!06622115_9593'
p996
ssS'M!06682662_HUMAN'
p997
(dp998
S'Homo sapiens'
p999
S'M!06682662_HUMAN'
p1000
sS'Pan troglodytes'
p1001
S'M!06638316_PANTR'
p1002
sS'Pongo abelii'
p1003
S'M!06673218_PONAB'
p1004
sS'Macaca mulatta'
p1005
S'M!06587574_MACMU'
p1006
sS'Gorilla gorilla'
p1007
S'M!06611313_9593'
p1008
ssS'M!06700349_HUMAN'
p1009
(dp1010
S'Homo sapiens'
p1011
S'M!06700349_HUMAN'
p1012
sS'Pan troglodytes'
p1013
S'M!06640095_PANTR'
p1014
sS'Pongo abelii'
p1015
S'M!06676560_PONAB'
p1016
sS'Macaca mulatta'
p1017
S'M!06592200_MACMU'
p1018
sS'Gorilla gorilla'
p1019
S'M!06618668_9593'
p1020
ssS'M!06700832_HUMAN'
p1021
(dp1022
S'Homo sapiens'
p1023
S'M!06700832_HUMAN'
p1024
sS'Pan troglodytes'
p1025
S'M!06636368_PANTR'
p1026
sS'Pongo abelii'
p1027
S'M!06677784_PONAB'
p1028
sS'Macaca mulatta'
p1029
S'M!06591231_MACMU'
p1030
sS'Gorilla gorilla'
p1031
S'M!06615145_9593'
p1032
ssS'M!06700492_HUMAN'
p1033
(dp1034
S'Homo sapiens'
p1035
S'M!06700492_HUMAN'
p1036
sS'Pan troglodytes'
p1037
S'M!06635661_PANTR'
p1038
sS'Pongo abelii'
p1039
S'M!06680528_PONAB'
p1040
sS'Macaca mulatta'
p1041
S'M!06582379_MACMU'
p1042
sS'Gorilla gorilla'
p1043
S'M!06611575_9593'
p1044
ssS'M!06691849_HUMAN'
p1045
(dp1046
S'Homo sapiens'
p1047
S'M!06692232_HUMAN'
p1048
sS'Pan troglodytes'
p1049
S'M!06639081_PANTR'
p1050
sS'Pongo abelii'
p1051
S'M!06670225_PONAB'
p1052
sS'Macaca mulatta'
p1053
S'M!06587659_MACMU'
p1054
sS'Gorilla gorilla'
p1055
S'M!06610210_9593'
p1056
ssS'M!06700346_HUMAN'
p1057
(dp1058
S'Homo sapiens'
p1059
S'M!06700346_HUMAN'
p1060
sS'Pan troglodytes'
p1061
S'M!06629926_PANTR'
p1062
sS'Pongo abelii'
p1063
S'M!06670406_PONAB'
p1064
sS'Macaca mulatta'
p1065
S'M!06574935_MACMU'
p1066
sS'Gorilla gorilla'
p1067
S'M!06618664_9593'
p1068
ssS'M!06699994_HUMAN'
p1069
(dp1070
S'Homo sapiens'
p1071
S'M!06699994_HUMAN'
p1072
sS'Pan troglodytes'
p1073
S'M!06629779_PANTR'
p1074
sS'Pongo abelii'
p1075
S'M!06670642_PONAB'
p1076
sS'Macaca mulatta'
p1077
S'M!06590758_MACMU'
p1078
sS'Gorilla gorilla'
p1079
S'M!06607880_9593'
p1080
ssS'M!06693135_HUMAN'
p1081
(dp1082
S'Homo sapiens'
p1083
S'M!06693135_HUMAN'
p1084
sS'Pan troglodytes'
p1085
S'M!06638712_PANTR'
p1086
sS'Pongo abelii'
p1087
S'M!06666702_PONAB'
p1088
sS'Macaca mulatta'
p1089
S'M!06580369_MACMU'
p1090
sS'Gorilla gorilla'
p1091
S'M!06617499_9593'
p1092
ssS'M!06686862_HUMAN'
p1093
(dp1094
S'Homo sapiens'
p1095
S'M!06691582_HUMAN'
p1096
sS'Pan troglodytes'
p1097
S'M!06631896_PANTR'
p1098
sS'Pongo abelii'
p1099
S'M!06678156_PONAB'
p1100
sS'Macaca mulatta'
p1101
S'M!06592027_MACMU'
p1102
sS'Gorilla gorilla'
p1103
S'M!06616648_9593'
p1104
ssS'M!06683685_HUMAN'
p1105
(dp1106
S'Homo sapiens'
p1107
S'M!06683685_HUMAN'
p1108
sS'Pan troglodytes'
p1109
S'M!06628388_PANTR'
p1110
sS'Pongo abelii'
p1111
S'M!06669120_PONAB'
p1112
sS'Macaca mulatta'
p1113
S'M!06582003_MACMU'
p1114
sS'Gorilla gorilla'
p1115
S'M!06616800_9593'
p1116
ssS'M!06686554_HUMAN'
p1117
(dp1118
S'Homo sapiens'
p1119
S'M!06686554_HUMAN'
p1120
sS'Pan troglodytes'
p1121
S'M!06641725_PANTR'
p1122
sS'Pongo abelii'
p1123
S'M!06675429_PONAB'
p1124
sS'Macaca mulatta'
p1125
S'M!06589437_MACMU'
p1126
sS'Gorilla gorilla'
p1127
S'M!06613738_9593'
p1128
ssS'M!06699925_HUMAN'
p1129
(dp1130
S'Homo sapiens'
p1131
S'M!06701593_HUMAN'
p1132
sS'Pan troglodytes'
p1133
S'M!06624036_PANTR'
p1134
sS'Pongo abelii'
p1135
S'M!06668134_PONAB'
p1136
sS'Macaca mulatta'
p1137
S'M!06589177_MACMU'
p1138
sS'Gorilla gorilla'
p1139
S'M!06622803_9593'
p1140
ssS'M!06683686_HUMAN'
p1141
(dp1142
S'Homo sapiens'
p1143
S'M!06683686_HUMAN'
p1144
sS'Pan troglodytes'
p1145
S'M!06628651_PANTR'
p1146
sS'Pongo abelii'
p1147
S'M!06662605_PONAB'
p1148
sS'Macaca mulatta'
p1149
S'M!06581640_MACMU'
p1150
sS'Gorilla gorilla'
p1151
S'M!06613348_9593'
p1152
ssS'M!06699069_HUMAN'
p1153
(dp1154
S'Homo sapiens'
p1155
S'M!06699069_HUMAN'
p1156
sS'Pan troglodytes'
p1157
S'M!06633406_PANTR'
p1158
sS'Pongo abelii'
p1159
S'M!06665981_PONAB'
p1160
sS'Macaca mulatta'
p1161
S'M!06580778_MACMU'
p1162
sS'Gorilla gorilla'
p1163
S'M!06617116_9593'
p1164
ssS'M!06690942_HUMAN'
p1165
(dp1166
S'Homo sapiens'
p1167
S'M!06690942_HUMAN'
p1168
sS'Pan troglodytes'
p1169
S'M!06636147_PANTR'
p1170
sS'Pongo abelii'
p1171
S'M!06676351_PONAB'
p1172
sS'Macaca mulatta'
p1173
S'M!06575358_MACMU'
p1174
sS'Gorilla gorilla'
p1175
S'M!06606703_9593'
p1176
ssS'M!06683294_HUMAN'
p1177
(dp1178
S'Homo sapiens'
p1179
S'M!06683294_HUMAN'
p1180
sS'Pan troglodytes'
p1181
S'M!06636664_PANTR'
p1182
sS'Pongo abelii'
p1183
S'M!06680330_PONAB'
p1184
sS'Macaca mulatta'
p1185
S'M!06589405_MACMU'
p1186
sS'Gorilla gorilla'
p1187
S'M!06613747_9593'
p1188
ssS'M!06694163_HUMAN'
p1189
(dp1190
S'Homo sapiens'
p1191
S'M!06686946_HUMAN'
p1192
sS'Pan troglodytes'
p1193
S'M!06623937_PANTR'
p1194
sS'Pongo abelii'
p1195
S'M!06664143_PONAB'
p1196
sS'Macaca mulatta'
p1197
S'M!06585813_MACMU'
p1198
sS'Gorilla gorilla'
p1199
S'M!06615904_9593'
p1200
ssS'M!06684214_HUMAN'
p1201
(dp1202
S'Homo sapiens'
p1203
S'M!06681561_HUMAN'
p1204
sS'Pan troglodytes'
p1205
S'M!06639174_PANTR'
p1206
sS'Pongo abelii'
p1207
S'M!06666422_PONAB'
p1208
sS'Macaca mulatta'
p1209
S'M!06579888_MACMU'
p1210
sS'Gorilla gorilla'
p1211
S'M!06622850_9593'
p1212
ssS'M!06701593_HUMAN'
p1213
(dp1214
S'Homo sapiens'
p1215
S'M!06701593_HUMAN'
p1216
sS'Pan troglodytes'
p1217
S'M!06624036_PANTR'
p1218
sS'Pongo abelii'
p1219
S'M!06668134_PONAB'
p1220
sS'Macaca mulatta'
p1221
S'M!06589177_MACMU'
p1222
sS'Gorilla gorilla'
p1223
S'M!06622803_9593'
p1224
ssS'M!06693359_HUMAN'
p1225
(dp1226
S'Homo sapiens'
p1227
S'M!06693359_HUMAN'
p1228
sS'Pan troglodytes'
p1229
S'M!06623325_PANTR'
p1230
sS'Pongo abelii'
p1231
S'M!06667315_PONAB'
p1232
sS'Macaca mulatta'
p1233
S'M!06591052_MACMU'
p1234
sS'Gorilla gorilla'
p1235
S'M!06618944_9593'
p1236
ssS'M!06692119_HUMAN'
p1237
(dp1238
S'Homo sapiens'
p1239
S'M!06689577_HUMAN'
p1240
sS'Pan troglodytes'
p1241
S'M!06630227_PANTR'
p1242
sS'Pongo abelii'
p1243
S'M!06662762_PONAB'
p1244
sS'Macaca mulatta'
p1245
S'M!06586783_MACMU'
p1246
sS'Gorilla gorilla'
p1247
S'M!06617211_9593'
p1248
ssS'M!06700583_HUMAN'
p1249
(dp1250
S'Homo sapiens'
p1251
S'M!06700583_HUMAN'
p1252
sS'Pan troglodytes'
p1253
S'M!06640049_PANTR'
p1254
sS'Pongo abelii'
p1255
S'M!06664585_PONAB'
p1256
sS'Macaca mulatta'
p1257
S'M!06583468_MACMU'
p1258
sS'Gorilla gorilla'
p1259
S'M!06619857_9593'
p1260
ssS'M!06690050_HUMAN'
p1261
(dp1262
S'Homo sapiens'
p1263
S'M!06690523_HUMAN'
p1264
sS'Pan troglodytes'
p1265
S'M!06634196_PANTR'
p1266
sS'Pongo abelii'
p1267
S'M!06679046_PONAB'
p1268
sS'Macaca mulatta'
p1269
S'M!06590379_MACMU'
p1270
sS'Gorilla gorilla'
p1271
S'M!06607463_9593'
p1272
ssS'M!06693231_HUMAN'
p1273
(dp1274
S'Homo sapiens'
p1275
S'M!06693231_HUMAN'
p1276
sS'Pan troglodytes'
p1277
S'M!06631661_PANTR'
p1278
sS'Pongo abelii'
p1279
S'M!06678622_PONAB'
p1280
sS'Macaca mulatta'
p1281
S'M!06578149_MACMU'
p1282
sS'Gorilla gorilla'
p1283
S'M!06619980_9593'
p1284
ssS'M!06682871_HUMAN'
p1285
(dp1286
S'Homo sapiens'
p1287
S'M!06682871_HUMAN'
p1288
sS'Pan troglodytes'
p1289
S'M!06639383_PANTR'
p1290
sS'Pongo abelii'
p1291
S'M!06668946_PONAB'
p1292
sS'Macaca mulatta'
p1293
S'M!06592092_MACMU'
p1294
sS'Gorilla gorilla'
p1295
S'M!06620735_9593'
p1296
ssS'M!06697383_HUMAN'
p1297
(dp1298
S'Homo sapiens'
p1299
S'M!06697383_HUMAN'
p1300
sS'Pan troglodytes'
p1301
S'M!06641748_PANTR'
p1302
sS'Pongo abelii'
p1303
S'M!06674463_PONAB'
p1304
sS'Macaca mulatta'
p1305
S'M!06594740_MACMU'
p1306
sS'Gorilla gorilla'
p1307
S'M!06609469_9593'
p1308
ssS'M!06683286_HUMAN'
p1309
(dp1310
S'Homo sapiens'
p1311
S'M!06683286_HUMAN'
p1312
sS'Pan troglodytes'
p1313
S'M!06624770_PANTR'
p1314
sS'Pongo abelii'
p1315
S'M!06673183_PONAB'
p1316
sS'Macaca mulatta'
p1317
S'M!06575580_MACMU'
p1318
sS'Gorilla gorilla'
p1319
S'M!06603365_9593'
p1320
ssS'M!06695326_HUMAN'
p1321
(dp1322
S'Homo sapiens'
p1323
S'M!06695326_HUMAN'
p1324
sS'Pan troglodytes'
p1325
S'M!06633606_PANTR'
p1326
sS'Pongo abelii'
p1327
S'M!06678386_PONAB'
p1328
sS'Macaca mulatta'
p1329
S'M!06584059_MACMU'
p1330
sS'Gorilla gorilla'
p1331
S'M!06615509_9593'
p1332
ssS'M!06700001_HUMAN'
p1333
(dp1334
S'Homo sapiens'
p1335
S'M!06700001_HUMAN'
p1336
sS'Pan troglodytes'
p1337
S'M!06637754_PANTR'
p1338
sS'Pongo abelii'
p1339
S'M!06669786_PONAB'
p1340
sS'Macaca mulatta'
p1341
S'M!06588537_MACMU'
p1342
sS'Gorilla gorilla'
p1343
S'M!06619946_9593'
p1344
ssS'M!06687202_HUMAN'
p1345
(dp1346
S'Homo sapiens'
p1347
S'M!06687202_HUMAN'
p1348
sS'Pan troglodytes'
p1349
S'M!06641611_PANTR'
p1350
sS'Pongo abelii'
p1351
S'M!06670942_PONAB'
p1352
sS'Macaca mulatta'
p1353
S'M!06595598_MACMU'
p1354
sS'Gorilla gorilla'
p1355
S'M!06614542_9593'
p1356
ssS'M!06683946_HUMAN'
p1357
(dp1358
S'Homo sapiens'
p1359
S'M!06687608_HUMAN'
p1360
sS'Pan troglodytes'
p1361
S'M!06629414_PANTR'
p1362
sS'Pongo abelii'
p1363
S'M!06671979_PONAB'
p1364
sS'Macaca mulatta'
p1365
S'M!06582754_MACMU'
p1366
sS'Gorilla gorilla'
p1367
S'M!06620554_9593'
p1368
ssS'M!06687864_HUMAN'
p1369
(dp1370
S'Homo sapiens'
p1371
S'M!06687864_HUMAN'
p1372
sS'Pan troglodytes'
p1373
S'M!06634175_PANTR'
p1374
sS'Pongo abelii'
p1375
S'M!06667969_PONAB'
p1376
sS'Macaca mulatta'
p1377
S'M!06585340_MACMU'
p1378
sS'Gorilla gorilla'
p1379
S'M!06603813_9593'
p1380
ssS'M!06692377_HUMAN'
p1381
(dp1382
S'Homo sapiens'
p1383
S'M!06692377_HUMAN'
p1384
sS'Pan troglodytes'
p1385
S'M!06625801_PANTR'
p1386
sS'Pongo abelii'
p1387
S'M!06665693_PONAB'
p1388
sS'Macaca mulatta'
p1389
S'M!06580463_MACMU'
p1390
sS'Gorilla gorilla'
p1391
S'M!06614428_9593'
p1392
ssS'M!06700332_HUMAN'
p1393
(dp1394
S'Homo sapiens'
p1395
S'M!06700332_HUMAN'
p1396
sS'Pan troglodytes'
p1397
S'M!06631284_PANTR'
p1398
sS'Pongo abelii'
p1399
S'M!06679342_PONAB'
p1400
sS'Macaca mulatta'
p1401
S'M!06582467_MACMU'
p1402
sS'Gorilla gorilla'
p1403
S'M!06622694_9593'
p1404
ssS'M!06684839_HUMAN'
p1405
(dp1406
S'Homo sapiens'
p1407
S'M!06684839_HUMAN'
p1408
sS'Pan troglodytes'
p1409
S'M!06626571_PANTR'
p1410
sS'Pongo abelii'
p1411
S'M!06668100_PONAB'
p1412
sS'Macaca mulatta'
p1413
S'M!06577549_MACMU'
p1414
sS'Gorilla gorilla'
p1415
S'M!06604131_9593'
p1416
ssS'M!06690841_HUMAN'
p1417
(dp1418
S'Homo sapiens'
p1419
S'M!06690841_HUMAN'
p1420
sS'Pan troglodytes'
p1421
S'M!06641838_PANTR'
p1422
sS'Pongo abelii'
p1423
S'M!06675080_PONAB'
p1424
sS'Macaca mulatta'
p1425
S'M!06581778_MACMU'
p1426
sS'Gorilla gorilla'
p1427
S'M!06606665_9593'
p1428
ssS'M!06689078_HUMAN'
p1429
(dp1430
S'Homo sapiens'
p1431
S'M!06689078_HUMAN'
p1432
sS'Pan troglodytes'
p1433
S'M!06628001_PANTR'
p1434
sS'Pongo abelii'
p1435
S'M!06679931_PONAB'
p1436
sS'Macaca mulatta'
p1437
S'M!06594825_MACMU'
p1438
sS'Gorilla gorilla'
p1439
S'M!06618934_9593'
p1440
ssS'M!06687867_HUMAN'
p1441
(dp1442
S'Homo sapiens'
p1443
S'M!06687867_HUMAN'
p1444
sS'Pan troglodytes'
p1445
S'M!06633266_PANTR'
p1446
sS'Pongo abelii'
p1447
S'M!06671674_PONAB'
p1448
sS'Macaca mulatta'
p1449
S'M!06584014_MACMU'
p1450
sS'Gorilla gorilla'
p1451
S'M!06616934_9593'
p1452
ssS'M!06698484_HUMAN'
p1453
(dp1454
S'Homo sapiens'
p1455
S'M!06698484_HUMAN'
p1456
sS'Pan troglodytes'
p1457
S'M!06626940_PANTR'
p1458
sS'Pongo abelii'
p1459
S'M!06675979_PONAB'
p1460
sS'Macaca mulatta'
p1461
S'M!06580567_MACMU'
p1462
sS'Gorilla gorilla'
p1463
S'M!06604007_9593'
p1464
ssS'M!06694407_HUMAN'
p1465
(dp1466
S'Homo sapiens'
p1467
S'M!06694407_HUMAN'
p1468
sS'Pan troglodytes'
p1469
S'M!06640573_PANTR'
p1470
sS'Pongo abelii'
p1471
S'M!06661876_PONAB'
p1472
sS'Macaca mulatta'
p1473
S'M!06581444_MACMU'
p1474
sS'Gorilla gorilla'
p1475
S'M!06620101_9593'
p1476
ssS'M!06681924_HUMAN'
p1477
(dp1478
S'Homo sapiens'
p1479
S'M!06681924_HUMAN'
p1480
sS'Pan troglodytes'
p1481
S'M!06625347_PANTR'
p1482
sS'Pongo abelii'
p1483
S'M!06661948_PONAB'
p1484
sS'Macaca mulatta'
p1485
S'M!06576065_MACMU'
p1486
sS'Gorilla gorilla'
p1487
S'M!06602960_9593'
p1488
ssS'M!06690510_HUMAN'
p1489
(dp1490
S'Homo sapiens'
p1491
S'M!06690510_HUMAN'
p1492
sS'Pan troglodytes'
p1493
S'M!06638195_PANTR'
p1494
sS'Pongo abelii'
p1495
S'M!06671100_PONAB'
p1496
sS'Macaca mulatta'
p1497
S'M!06585908_MACMU'
p1498
sS'Gorilla gorilla'
p1499
S'M!06613373_9593'
p1500
ssS'M!06698096_HUMAN'
p1501
(dp1502
S'Homo sapiens'
p1503
S'M!06698096_HUMAN'
p1504
sS'Pan troglodytes'
p1505
S'M!06632598_PANTR'
p1506
sS'Pongo abelii'
p1507
S'M!06680177_PONAB'
p1508
sS'Macaca mulatta'
p1509
S'M!06577545_MACMU'
p1510
sS'Gorilla gorilla'
p1511
S'M!06610146_9593'
p1512
ssS'M!06690206_HUMAN'
p1513
(dp1514
S'Homo sapiens'
p1515
S'M!06690206_HUMAN'
p1516
sS'Pan troglodytes'
p1517
S'M!06623386_PANTR'
p1518
sS'Pongo abelii'
p1519
S'M!06667689_PONAB'
p1520
sS'Macaca mulatta'
p1521
S'M!06581114_MACMU'
p1522
sS'Gorilla gorilla'
p1523
S'M!06606438_9593'
p1524
ssS'M!06689040_HUMAN'
p1525
(dp1526
S'Homo sapiens'
p1527
S'M!06689040_HUMAN'
p1528
sS'Pan troglodytes'
p1529
S'M!06638676_PANTR'
p1530
sS'Pongo abelii'
p1531
S'M!06666167_PONAB'
p1532
sS'Macaca mulatta'
p1533
S'M!06590792_MACMU'
p1534
sS'Gorilla gorilla'
p1535
S'M!06606920_9593'
p1536
ssS'M!06684704_HUMAN'
p1537
(dp1538
S'Homo sapiens'
p1539
S'M!06684704_HUMAN'
p1540
sS'Pan troglodytes'
p1541
S'M!06633162_PANTR'
p1542
sS'Pongo abelii'
p1543
S'M!06668513_PONAB'
p1544
sS'Macaca mulatta'
p1545
S'M!06583064_MACMU'
p1546
sS'Gorilla gorilla'
p1547
S'M!06604468_9593'
p1548
ssS'M!06696486_HUMAN'
p1549
(dp1550
S'Homo sapiens'
p1551
S'M!06696486_HUMAN'
p1552
sS'Pan troglodytes'
p1553
S'M!06635936_PANTR'
p1554
sS'Pongo abelii'
p1555
S'M!06680862_PONAB'
p1556
sS'Macaca mulatta'
p1557
S'M!06576309_MACMU'
p1558
sS'Gorilla gorilla'
p1559
S'M!06613192_9593'
p1560
ssS'M!06688998_HUMAN'
p1561
(dp1562
S'Homo sapiens'
p1563
S'M!06688998_HUMAN'
p1564
sS'Pan troglodytes'
p1565
S'M!06629422_PANTR'
p1566
sS'Pongo abelii'
p1567
S'M!06669942_PONAB'
p1568
sS'Macaca mulatta'
p1569
S'M!06594757_MACMU'
p1570
sS'Gorilla gorilla'
p1571
S'M!06603050_9593'
p1572
ssS'M!06698553_HUMAN'
p1573
(dp1574
S'Homo sapiens'
p1575
S'M!06698553_HUMAN'
p1576
sS'Pan troglodytes'
p1577
S'M!06639565_PANTR'
p1578
sS'Pongo abelii'
p1579
S'M!06673234_PONAB'
p1580
sS'Macaca mulatta'
p1581
S'M!06594695_MACMU'
p1582
sS'Gorilla gorilla'
p1583
S'M!06620056_9593'
p1584
ssS'M!06701495_HUMAN'
p1585
(dp1586
S'Homo sapiens'
p1587
S'M!06701495_HUMAN'
p1588
sS'Pan troglodytes'
p1589
S'M!06629166_PANTR'
p1590
sS'Pongo abelii'
p1591
S'M!06668076_PONAB'
p1592
sS'Macaca mulatta'
p1593
S'M!06584267_MACMU'
p1594
sS'Gorilla gorilla'
p1595
S'M!06622912_9593'
p1596
ssS'M!06699218_HUMAN'
p1597
(dp1598
S'Homo sapiens'
p1599
S'M!06699218_HUMAN'
p1600
sS'Pan troglodytes'
p1601
S'M!06634842_PANTR'
p1602
sS'Pongo abelii'
p1603
S'M!06678058_PONAB'
p1604
sS'Macaca mulatta'
p1605
S'M!06589567_MACMU'
p1606
sS'Gorilla gorilla'
p1607
S'M!06621912_9593'
p1608
ssS'M!06696522_HUMAN'
p1609
(dp1610
S'Homo sapiens'
p1611
S'M!06696522_HUMAN'
p1612
sS'Pan troglodytes'
p1613
S'M!06623756_PANTR'
p1614
sS'Pongo abelii'
p1615
S'M!06667276_PONAB'
p1616
sS'Macaca mulatta'
p1617
S'M!06582492_MACMU'
p1618
sS'Gorilla gorilla'
p1619
S'M!06612080_9593'
p1620
ssS'M!06691363_HUMAN'
p1621
(dp1622
S'Homo sapiens'
p1623
S'M!06691363_HUMAN'
p1624
sS'Pan troglodytes'
p1625
S'M!06627563_PANTR'
p1626
sS'Pongo abelii'
p1627
S'M!06677332_PONAB'
p1628
sS'Macaca mulatta'
p1629
S'M!06592695_MACMU'
p1630
sS'Gorilla gorilla'
p1631
S'M!06614841_9593'
p1632
ssS'M!06682617_HUMAN'
p1633
(dp1634
S'Homo sapiens'
p1635
S'M!06682617_HUMAN'
p1636
sS'Pan troglodytes'
p1637
S'M!06634160_PANTR'
p1638
sS'Pongo abelii'
p1639
S'M!06679093_PONAB'
p1640
sS'Macaca mulatta'
p1641
S'M!06593781_MACMU'
p1642
sS'Gorilla gorilla'
p1643
S'M!06612633_9593'
p1644
ssS'M!06689705_HUMAN'
p1645
(dp1646
S'Homo sapiens'
p1647
S'M!06689705_HUMAN'
p1648
sS'Pan troglodytes'
p1649
S'M!06625021_PANTR'
p1650
sS'Pongo abelii'
p1651
S'M!06663942_PONAB'
p1652
sS'Macaca mulatta'
p1653
S'M!06591713_MACMU'
p1654
sS'Gorilla gorilla'
p1655
S'M!06607120_9593'
p1656
ssS'M!06694920_HUMAN'
p1657
(dp1658
S'Homo sapiens'
p1659
S'M!06694920_HUMAN'
p1660
sS'Pan troglodytes'
p1661
S'M!06636454_PANTR'
p1662
sS'Pongo abelii'
p1663
S'M!06672240_PONAB'
p1664
sS'Macaca mulatta'
p1665
S'M!06578152_MACMU'
p1666
sS'Gorilla gorilla'
p1667
S'M!06604901_9593'
p1668
ssS'M!06700257_HUMAN'
p1669
(dp1670
S'Homo sapiens'
p1671
S'M!06700257_HUMAN'
p1672
sS'Pan troglodytes'
p1673
S'M!06633967_PANTR'
p1674
sS'Pongo abelii'
p1675
S'M!06680390_PONAB'
p1676
sS'Macaca mulatta'
p1677
S'M!06594796_MACMU'
p1678
sS'Gorilla gorilla'
p1679
S'M!06618393_9593'
p1680
ssS'M!06682028_HUMAN'
p1681
(dp1682
S'Homo sapiens'
p1683
S'M!06682028_HUMAN'
p1684
sS'Pan troglodytes'
p1685
S'M!06635112_PANTR'
p1686
sS'Pongo abelii'
p1687
S'M!06668899_PONAB'
p1688
sS'Macaca mulatta'
p1689
S'M!06582648_MACMU'
p1690
sS'Gorilla gorilla'
p1691
S'M!06607069_9593'
p1692
ssS'M!06696561_HUMAN'
p1693
(dp1694
S'Homo sapiens'
p1695
S'M!06696561_HUMAN'
p1696
sS'Pan troglodytes'
p1697
S'M!06636750_PANTR'
p1698
sS'Pongo abelii'
p1699
S'M!06679164_PONAB'
p1700
sS'Macaca mulatta'
p1701
S'M!06583250_MACMU'
p1702
sS'Gorilla gorilla'
p1703
S'M!06612639_9593'
p1704
ssS'M!06684915_HUMAN'
p1705
(dp1706
S'Homo sapiens'
p1707
S'M!06684915_HUMAN'
p1708
sS'Pan troglodytes'
p1709
S'M!06638262_PANTR'
p1710
sS'Pongo abelii'
p1711
S'M!06673076_PONAB'
p1712
sS'Macaca mulatta'
p1713
S'M!06592767_MACMU'
p1714
sS'Gorilla gorilla'
p1715
S'M!06608423_9593'
p1716
ssS'M!06691278_HUMAN'
p1717
(dp1718
S'Homo sapiens'
p1719
S'M!06691278_HUMAN'
p1720
sS'Pan troglodytes'
p1721
S'M!06637538_PANTR'
p1722
sS'Pongo abelii'
p1723
S'M!06674541_PONAB'
p1724
sS'Macaca mulatta'
p1725
S'M!06579604_MACMU'
p1726
sS'Gorilla gorilla'
p1727
S'M!06616590_9593'
p1728
ssS'M!06689931_HUMAN'
p1729
(dp1730
S'Homo sapiens'
p1731
S'M!06689931_HUMAN'
p1732
sS'Pan troglodytes'
p1733
S'M!06637997_PANTR'
p1734
sS'Pongo abelii'
p1735
S'M!06670868_PONAB'
p1736
sS'Macaca mulatta'
p1737
S'M!06576587_MACMU'
p1738
sS'Gorilla gorilla'
p1739
S'M!06618697_9593'
p1740
ssS'M!06692623_HUMAN'
p1741
(dp1742
S'Homo sapiens'
p1743
S'M!06692623_HUMAN'
p1744
sS'Pan troglodytes'
p1745
S'M!06632789_PANTR'
p1746
sS'Pongo abelii'
p1747
S'M!06677059_PONAB'
p1748
sS'Macaca mulatta'
p1749
S'M!06592453_MACMU'
p1750
sS'Gorilla gorilla'
p1751
S'M!06616890_9593'
p1752
ss.